target datalayout = "e-m:e-p270:32:32-p271:32:32-p272:64:64-i64:64-i128:128-f80:128-n8:16:32:64-S128"
target triple = "x86_64-pc-linux-gnu"

%struct.SDL_Rect = type { i32, i32, i32, i32 }
%struct.SDL_Point = type { i32, i32 }
%struct.SDL_WindowData = type { ptr, i64, ptr, i64, i8, %struct.XShmSegmentInfo, ptr, ptr, ptr, i8, i32, i32, i32, i32, i8, i8, i8, i64, i32, i64, i8, %struct.SDL_Point, %struct.XConfigureEvent, %struct.XConfigureEvent, ptr, i64, i64, i64, i8, i64, ptr, i8, [4 x i64], %struct.SDL_Rect, i64, %struct._XSyncValue, i8, %struct.SDL_Rect, %struct.SDL_DisplayMode, i32, i32, i8, i8, i8, i8, i8, i8, i8, i8, i32, %struct.XPoint, ptr, ptr, i32, i32, i8 }
%struct.XShmSegmentInfo = type { i64, i32, ptr, i32 }
%struct.XConfigureEvent = type { i32, i64, i32, ptr, i64, i64, i32, i32, i32, i32, i32, i64, i32 }
%struct._XSyncValue = type { i32, i32 }
%struct.SDL_DisplayMode = type { i32, i32, i32, i32, float, float, i32, i32, ptr }
%struct.XPoint = type { i16, i16 }

@X11_XUnsetICFocus = external global ptr, align 8

; Function Attrs: nounwind uwtable
define internal void @X11_DispatchFocusOut(ptr noundef %0, ptr noundef %1) #0 {
  %3 = alloca ptr, align 8
  %4 = alloca ptr, align 8
  store ptr %0, ptr %3, align 8
  store ptr %1, ptr %4, align 8
  %5 = load ptr, ptr %4, align 8
  %6 = getelementptr inbounds nuw %struct.SDL_WindowData, ptr %5, i32 0, i32 0
  %7 = load ptr, ptr %6, align 8
  %8 = call ptr @SDL_GetKeyboardFocus_REAL()
  %9 = icmp eq ptr %7, %8
  br i1 %9, label %10, label %12

10:                                               ; preds = %2
  %11 = call zeroext i1 @SDL_SetKeyboardFocus(ptr noundef null)
  br label %12

12:                                               ; preds = %10, %2
  %13 = load ptr, ptr %4, align 8
  %14 = getelementptr inbounds nuw %struct.SDL_WindowData, ptr %13, i32 0, i32 8
  %15 = load ptr, ptr %14, align 8
  %16 = icmp ne ptr %15, null
  br i1 %16, label %17, label %22

17:                                               ; preds = %12
  %18 = load ptr, ptr @X11_XUnsetICFocus, align 8
  %19 = load ptr, ptr %4, align 8
  %20 = getelementptr inbounds nuw %struct.SDL_WindowData, ptr %19, i32 0, i32 8
  %21 = load ptr, ptr %20, align 8
  call void %18(ptr noundef %21)
  br label %22

22:                                               ; preds = %17, %12
  ret void
}