; Function Attrs: nounwind uwtable
define internal fastcc void @X11_DispatchFocusOut(ptr noundef nonnull readonly captures(none) %0) unnamed_addr #1 {
  %2 = load ptr, ptr %0, align 8
  %3 = tail call ptr @SDL_GetKeyboardFocus_REAL() #12
  %4 = icmp eq ptr %2, %3
  br i1 %4, label %5, label %7

5:                                                ; preds = %1
  %6 = tail call zeroext i1 @SDL_SetKeyboardFocus(ptr noundef null) #12
  br label %7

7:                                                ; preds = %5, %1
  %8 = getelementptr inbounds nuw i8, ptr %0, i64 88
  %9 = load ptr, ptr %8, align 8
  %.not = icmp eq ptr %9, null
  br i1 %.not, label %12, label %10

10:                                               ; preds = %7
  %11 = load ptr, ptr @X11_XUnsetICFocus, align 8
  tail call void %11(ptr noundef nonnull %9) #12
  br label %12

12:                                               ; preds = %10, %7
  ret void
}